; Function Attrs: mustprogress uwtable
define hidden void @_ZN19OpenColorIO_v2_4dev18Lut3DTransformImpl11setGridSizeEm(ptr noundef nonnull align 8 dereferenceable(240) %this, i64 noundef %gridSize) unnamed_addr #3 align 2 personality ptr @__gxx_personality_v0 {
entry:
  %ref.tmp = alloca %"class.OpenColorIO_v2_4dev::Lut3DOpData::Lut3DArray", align 8
  call void @_ZN19OpenColorIO_v2_4dev11Lut3DOpData10Lut3DArrayC1Em(ptr noundef nonnull align 8 dereferenceable(48) %ref.tmp, i64 noundef %gridSize)
  %m_length.i = getelementptr inbounds i8, ptr %this, i64 192
  %m_length2.i = getelementptr inbounds i8, ptr %ref.tmp, i64 8
  call void @llvm.memcpy.p0.p0.i64(ptr noundef nonnull align 8 dereferenceable(16) %m_length.i, ptr noundef nonnull align 8 dereferenceable(16) %m_length2.i, i64 16, i1 false)
  %m_data.i = getelementptr inbounds i8, ptr %this, i64 208
  %m_data3.i = getelementptr inbounds i8, ptr %ref.tmp, i64 24
  %call4.i1 = invoke noundef nonnull align 8 dereferenceable(24) ptr @_ZNSt6vectorIfSaIfEEaSERKS1_(ptr noundef nonnull align 8 dereferenceable(24) %m_data.i, ptr noundef nonnull align 8 dereferenceable(24) %m_data3.i)
          to label %invoke.cont unwind label %lpad

invoke.cont:                                      ; preds = %entry
  call void @_ZN19OpenColorIO_v2_4dev11Lut3DOpData10Lut3DArrayD1Ev(ptr noundef nonnull align 8 dereferenceable(48) %ref.tmp) #18
  ret void

lpad:                                             ; preds = %entry
  %0 = landingpad { ptr, i32 }
          cleanup
  call void @_ZN19OpenColorIO_v2_4dev11Lut3DOpData10Lut3DArrayD1Ev(ptr noundef nonnull align 8 dereferenceable(48) %ref.tmp) #18
  resume { ptr, i32 } %0
}